target datalayout = "e-m:e-p270:32:32-p271:32:32-p272:64:64-i64:64-i128:128-f80:128-n8:16:32:64-S128"
target triple = "x86_64-unknown-linux-gnu"

%"class.google::protobuf::compiler::rust::Context" = type { ptr, ptr, ptr, ptr }
%"class.absl::lts_20230802::Span" = type { ptr, i64 }
%"class.std::basic_string_view" = type { i64, ptr }
%class.anon.21 = type { ptr }
%"class.google::protobuf::FieldDescriptor" = type { %"class.google::protobuf::internal::SymbolBase", i8, i8, i8, i32, ptr, ptr, ptr, ptr, %union.anon.18, %union.anon.19, ptr, ptr, ptr, %union.anon.20 }
%"class.google::protobuf::internal::SymbolBase" = type { i8 }
%union.anon.18 = type { ptr }
%union.anon.19 = type { ptr }
%union.anon.20 = type { i64 }
%class.anon.69 = type <{ %class.anon.21, i8, [7 x i8] }>

; Function Attrs: noreturn nounwind uwtable
define linkonce_odr hidden void @__clang_call_terminate(ptr noundef %0) #7 comdat {
  %2 = call ptr @__cxa_begin_catch(ptr %0) #3
  call void @_ZSt9terminatev() #12
  unreachable
}

; Function Attrs: mustprogress nounwind uwtable
define linkonce_odr hidden noundef i64 @_ZNSt11char_traitsIcE6lengthEPKc(ptr noundef %__s) #5 comdat align 2 {
entry:
  %__s.addr = alloca ptr, align 8
  store ptr %__s, ptr %__s.addr, align 8
  %0 = load ptr, ptr %__s.addr, align 8
  %call = call i64 @strlen(ptr noundef %0) #3
  ret i64 %call
}

; Function Attrs: mustprogress nounwind uwtable
define linkonce_odr hidden void @_ZN4absl12lts_202308024SpanIKN6google8protobuf2io7Printer3SubEEC2EPS7_m(ptr noundef nonnull align 8 dereferenceable(16) %this, ptr noundef %array, i64 noundef %length) unnamed_addr #5 comdat align 2 {
entry:
  %this.addr = alloca ptr, align 8
  %array.addr = alloca ptr, align 8
  %length.addr = alloca i64, align 8
  store ptr %this, ptr %this.addr, align 8
  store ptr %array, ptr %array.addr, align 8
  store i64 %length, ptr %length.addr, align 8
  %this1 = load ptr, ptr %this.addr, align 8
  %ptr_ = getelementptr inbounds %"class.absl::lts_20230802::Span", ptr %this1, i32 0, i32 0
  %0 = load ptr, ptr %array.addr, align 8
  store ptr %0, ptr %ptr_, align 8
  %len_ = getelementptr inbounds %"class.absl::lts_20230802::Span", ptr %this1, i32 0, i32 1
  %1 = load i64, ptr %length.addr, align 8
  store i64 %1, ptr %len_, align 8
  ret void
}

; Function Attrs: mustprogress nounwind uwtable
define linkonce_odr hidden noundef i32 @_ZNK6google8protobuf15FieldDescriptor5labelEv(ptr noundef nonnull align 8 dereferenceable(88) %this) #5 comdat align 2 {
entry:
  %this.addr = alloca ptr, align 8
  store ptr %this, ptr %this.addr, align 8
  %this1 = load ptr, ptr %this.addr, align 8
  %label_ = getelementptr inbounds %"class.google::protobuf::FieldDescriptor", ptr %this1, i32 0, i32 1
  %bf.load = load i8, ptr %label_, align 1
  %bf.lshr = lshr i8 %bf.load, 5
  %bf.clear = and i8 %bf.lshr, 3
  %conv = zext i8 %bf.clear to i32
  ret i32 %conv
}

; Function Attrs: mustprogress uwtable
define linkonce_odr hidden void @_ZNK6google8protobuf8compiler4rust7ContextINS0_15FieldDescriptorEE4EmitEN4absl12lts_202308024SpanIKNS0_2io7Printer3SubEEESt17basic_string_viewIcSt11char_traitsIcEENSA_14SourceLocationE(ptr noundef nonnull align 8 dereferenceable(32) %this, ptr %vars.coerce0, i64 %vars.coerce1, i64 %format.coerce0, ptr %format.coerce1) #4 comdat align 2 {
entry:
  %vars = alloca %"class.absl::lts_20230802::Span", align 8
  %format = alloca %"class.std::basic_string_view", align 8
  %this.addr = alloca ptr, align 8
  %agg.tmp = alloca %"class.absl::lts_20230802::Span", align 8
  %agg.tmp2 = alloca %"class.std::basic_string_view", align 8
  %0 = getelementptr inbounds { ptr, i64 }, ptr %vars, i32 0, i32 0
  store ptr %vars.coerce0, ptr %0, align 8
  %1 = getelementptr inbounds { ptr, i64 }, ptr %vars, i32 0, i32 1
  store i64 %vars.coerce1, ptr %1, align 8
  %2 = getelementptr inbounds { i64, ptr }, ptr %format, i32 0, i32 0
  store i64 %format.coerce0, ptr %2, align 8
  %3 = getelementptr inbounds { i64, ptr }, ptr %format, i32 0, i32 1
  store ptr %format.coerce1, ptr %3, align 8
  store ptr %this, ptr %this.addr, align 8
  %this1 = load ptr, ptr %this.addr, align 8
  %printer_ = getelementptr inbounds %"class.google::protobuf::compiler::rust::Context", ptr %this1, i32 0, i32 3
  %4 = load ptr, ptr %printer_, align 8
  call void @llvm.memcpy.p0.p0.i64(ptr align 8 %agg.tmp, ptr align 8 %vars, i64 16, i1 false)
  call void @llvm.memcpy.p0.p0.i64(ptr align 8 %agg.tmp2, ptr align 8 %format, i64 16, i1 false)
  %5 = getelementptr inbounds { ptr, i64 }, ptr %agg.tmp, i32 0, i32 0
  %6 = load ptr, ptr %5, align 8
  %7 = getelementptr inbounds { ptr, i64 }, ptr %agg.tmp, i32 0, i32 1
  %8 = load i64, ptr %7, align 8
  %9 = getelementptr inbounds { i64, ptr }, ptr %agg.tmp2, i32 0, i32 0
  %10 = load i64, ptr %9, align 8
  %11 = getelementptr inbounds { i64, ptr }, ptr %agg.tmp2, i32 0, i32 1
  %12 = load ptr, ptr %11, align 8
  call void @_ZN6google8protobuf2io7Printer4EmitEN4absl12lts_202308024SpanIKNS2_3SubEEESt17basic_string_viewIcSt11char_traitsIcEENS2_14SourceLocationE(ptr noundef nonnull align 8 dereferenceable(256) %4, ptr %6, i64 %8, i64 %10, ptr %12)
  ret void
}

; Function Attrs: mustprogress nounwind uwtable
define linkonce_odr hidden void @_ZN6google8protobuf2io7Printer14SourceLocation7currentEv() #5 comdat align 2 {
entry:
  ret void
}

; Function Attrs: mustprogress nounwind uwtable
define linkonce_odr hidden void @_ZNSt17basic_string_viewIcSt11char_traitsIcEEC2EPKc(ptr noundef nonnull align 8 dereferenceable(16) %this, ptr noundef nonnull %__str) unnamed_addr #5 comdat align 2 personality ptr @__gxx_personality_v0 {
entry:
  %this.addr = alloca ptr, align 8
  %__str.addr = alloca ptr, align 8
  store ptr %this, ptr %this.addr, align 8
  store ptr %__str, ptr %__str.addr, align 8
  %this1 = load ptr, ptr %this.addr, align 8
  %_M_len = getelementptr inbounds %"class.std::basic_string_view", ptr %this1, i32 0, i32 0
  %0 = load ptr, ptr %__str.addr, align 8
  %call = invoke noundef i64 @_ZNSt11char_traitsIcE6lengthEPKc(ptr noundef %0)
          to label %invoke.cont unwind label %terminate.lpad

invoke.cont:                                      ; preds = %entry
  store i64 %call, ptr %_M_len, align 8
  %_M_str = getelementptr inbounds %"class.std::basic_string_view", ptr %this1, i32 0, i32 1
  %1 = load ptr, ptr %__str.addr, align 8
  store ptr %1, ptr %_M_str, align 8
  ret void

terminate.lpad:                                   ; preds = %entry
  %2 = landingpad { ptr, i32 }
          catch ptr null
  %3 = extractvalue { ptr, i32 } %2, 0
  call void @__clang_call_terminate(ptr %3) #12
  unreachable
}

; Function Attrs: mustprogress nounwind uwtable
define linkonce_odr hidden void @_ZN4absl12lts_202308024SpanIKN6google8protobuf2io7Printer3SubEEC2Ev(ptr noundef nonnull align 8 dereferenceable(16) %this) unnamed_addr #5 comdat align 2 {
entry:
  %this.addr = alloca ptr, align 8
  store ptr %this, ptr %this.addr, align 8
  %this1 = load ptr, ptr %this.addr, align 8
  call void @_ZN4absl12lts_202308024SpanIKN6google8protobuf2io7Printer3SubEEC2EPS7_m(ptr noundef nonnull align 8 dereferenceable(16) %this1, ptr noundef null, i64 noundef 0) #3
  ret void
}

; Function Attrs: mustprogress uwtable
define linkonce_odr hidden noundef zeroext i1 @_ZNK6google8protobuf15FieldDescriptor11is_optionalEv(ptr noundef nonnull align 8 dereferenceable(88) %this) #4 comdat align 2 {
entry:
  %this.addr = alloca ptr, align 8
  store ptr %this, ptr %this.addr, align 8
  %this1 = load ptr, ptr %this.addr, align 8
  %call = call noundef i32 @_ZNK6google8protobuf15FieldDescriptor5labelEv(ptr noundef nonnull align 8 dereferenceable(88) %this1)
  %cmp = icmp eq i32 %call, 1
  ret i1 %cmp
}

; Function Attrs: mustprogress nounwind uwtable
define linkonce_odr hidden noundef nonnull align 8 dereferenceable(88) ptr @_ZNK6google8protobuf8compiler4rust7ContextINS0_15FieldDescriptorEE4descEv(ptr noundef nonnull align 8 dereferenceable(32) %this) #5 comdat align 2 {
entry:
  %this.addr = alloca ptr, align 8
  store ptr %this, ptr %this.addr, align 8
  %this1 = load ptr, ptr %this.addr, align 8
  %desc_ = getelementptr inbounds %"class.google::protobuf::compiler::rust::Context", ptr %this1, i32 0, i32 1
  %0 = load ptr, ptr %desc_, align 8
  ret ptr %0
}

; Function Attrs: mustprogress uwtable
define internal void @"_ZZNK6google8protobuf8compiler4rust14SingularScalar9InMsgImplENS2_7ContextINS0_15FieldDescriptorEEEENK3$_1clEv"(ptr noundef nonnull align 8 dereferenceable(8) %this) #4 align 2 {
entry:
  %this.addr = alloca ptr, align 8
  %agg.tmp = alloca %"class.absl::lts_20230802::Span", align 8
  %agg.tmp7 = alloca %"class.std::basic_string_view", align 8
  store ptr %this, ptr %this.addr, align 8
  %this1 = load ptr, ptr %this.addr, align 8
  %0 = getelementptr inbounds %class.anon.21, ptr %this1, i32 0, i32 0
  %1 = load ptr, ptr %0, align 8
  %call = call noundef nonnull align 8 dereferenceable(88) ptr @_ZNK6google8protobuf8compiler4rust7ContextINS0_15FieldDescriptorEE4descEv(ptr noundef nonnull align 8 dereferenceable(32) %1)
  %call2 = call noundef zeroext i1 @_ZNK6google8protobuf15FieldDescriptor11is_optionalEv(ptr noundef nonnull align 8 dereferenceable(88) %call)
  br i1 %call2, label %if.end, label %if.then

if.then:                                          ; preds = %entry
  br label %return

if.end:                                           ; preds = %entry
  %2 = getelementptr inbounds %class.anon.21, ptr %this1, i32 0, i32 0
  %3 = load ptr, ptr %2, align 8
  %call3 = call noundef nonnull align 8 dereferenceable(88) ptr @_ZNK6google8protobuf8compiler4rust7ContextINS0_15FieldDescriptorEE4descEv(ptr noundef nonnull align 8 dereferenceable(32) %3)
  %call4 = call noundef zeroext i1 @_ZNK6google8protobuf15FieldDescriptor12has_presenceEv(ptr noundef nonnull align 8 dereferenceable(88) %call3)
  br i1 %call4, label %if.end6, label %if.then5

if.then5:                                         ; preds = %if.end
  br label %return

if.end6:                                          ; preds = %if.end
  %4 = getelementptr inbounds %class.anon.21, ptr %this1, i32 0, i32 0
  %5 = load ptr, ptr %4, align 8
  call void @_ZN4absl12lts_202308024SpanIKN6google8protobuf2io7Printer3SubEEC2Ev(ptr noundef nonnull align 8 dereferenceable(16) %agg.tmp) #3
  call void @_ZNSt17basic_string_viewIcSt11char_traitsIcEEC2EPKc(ptr noundef nonnull align 8 dereferenceable(16) %agg.tmp7, ptr noundef @.str.22) #3
  call void @_ZN6google8protobuf2io7Printer14SourceLocation7currentEv()
  %6 = getelementptr inbounds { ptr, i64 }, ptr %agg.tmp, i32 0, i32 0
  %7 = load ptr, ptr %6, align 8
  %8 = getelementptr inbounds { ptr, i64 }, ptr %agg.tmp, i32 0, i32 1
  %9 = load i64, ptr %8, align 8
  %10 = getelementptr inbounds { i64, ptr }, ptr %agg.tmp7, i32 0, i32 0
  %11 = load i64, ptr %10, align 8
  %12 = getelementptr inbounds { i64, ptr }, ptr %agg.tmp7, i32 0, i32 1
  %13 = load ptr, ptr %12, align 8
  call void @_ZNK6google8protobuf8compiler4rust7ContextINS0_15FieldDescriptorEE4EmitEN4absl12lts_202308024SpanIKNS0_2io7Printer3SubEEESt17basic_string_viewIcSt11char_traitsIcEENSA_14SourceLocationE(ptr noundef nonnull align 8 dereferenceable(32) %5, ptr %7, i64 %9, i64 %11, ptr %13)
  br label %return

return:                                           ; preds = %if.end6, %if.then5, %if.then
  ret void
}

; Function Attrs: mustprogress uwtable
define internal noundef zeroext i1 @"_ZZN6google8protobuf2io7Printer9ValueImplILb1EE18ToStringOrCallbackIZNKS0_8compiler4rust14SingularScalar9InMsgImplENS7_7ContextINS0_15FieldDescriptorEEEE3$_1vEESt7variantIJNSt7__cxx1112basic_stringIcSt11char_traitsIcESaIcEEESt8functionIFbvEEEEOT_NS4_5Rank2EENUlvE_clEv"(ptr noundef nonnull align 8 dereferenceable(9) %this) #4 align 2 {
entry:
  %retval = alloca i1, align 1
  %this.addr = alloca ptr, align 8
  store ptr %this, ptr %this.addr, align 8
  %this1 = load ptr, ptr %this.addr, align 8
  %0 = getelementptr inbounds %class.anon.69, ptr %this1, i32 0, i32 1
  %1 = load i8, ptr %0, align 8
  %tobool = trunc i8 %1 to i1
  br i1 %tobool, label %if.then, label %if.end

if.then:                                          ; preds = %entry
  store i1 false, ptr %retval, align 1
  br label %return

if.end:                                           ; preds = %entry
  %2 = getelementptr inbounds %class.anon.69, ptr %this1, i32 0, i32 1
  store i8 1, ptr %2, align 8
  %3 = getelementptr inbounds %class.anon.69, ptr %this1, i32 0, i32 0
  call void @"_ZZNK6google8protobuf8compiler4rust14SingularScalar9InMsgImplENS2_7ContextINS0_15FieldDescriptorEEEENK3$_1clEv"(ptr noundef nonnull align 8 dereferenceable(8) %3)
  %4 = getelementptr inbounds %class.anon.69, ptr %this1, i32 0, i32 1
  store i8 0, ptr %4, align 8
  store i1 true, ptr %retval, align 1
  br label %return

return:                                           ; preds = %if.end, %if.then
  %5 = load i1, ptr %retval, align 1
  ret i1 %5
}

; Function Attrs: mustprogress nounwind uwtable
define linkonce_odr hidden noundef ptr @_ZNKSt9_Any_data9_M_accessEv(ptr noundef nonnull align 8 dereferenceable(16) %this) #5 comdat align 2 {
entry:
  %this.addr = alloca ptr, align 8
  store ptr %this, ptr %this.addr, align 8
  %this1 = load ptr, ptr %this.addr, align 8
  %arrayidx = getelementptr inbounds [16 x i8], ptr %this1, i64 0, i64 0
  ret ptr %arrayidx
}

; Function Attrs: mustprogress uwtable
define internal noundef zeroext i1 @"_ZSt13__invoke_implIbRZN6google8protobuf2io7Printer9ValueImplILb1EE18ToStringOrCallbackIZNKS1_8compiler4rust14SingularScalar9InMsgImplENS8_7ContextINS1_15FieldDescriptorEEEE3$_1vEESt7variantIJNSt7__cxx1112basic_stringIcSt11char_traitsIcESaIcEEESt8functionIFbvEEEEOT_NS5_5Rank2EEUlvE_JEESP_St14__invoke_otherOT0_DpOT1_"(ptr noundef nonnull align 8 dereferenceable(9) %__f) #4 {
entry:
  %__f.addr = alloca ptr, align 8
  store ptr %__f, ptr %__f.addr, align 8
  %0 = load ptr, ptr %__f.addr, align 8
  %call = call noundef zeroext i1 @"_ZZN6google8protobuf2io7Printer9ValueImplILb1EE18ToStringOrCallbackIZNKS0_8compiler4rust14SingularScalar9InMsgImplENS7_7ContextINS0_15FieldDescriptorEEEE3$_1vEESt7variantIJNSt7__cxx1112basic_stringIcSt11char_traitsIcESaIcEEESt8functionIFbvEEEEOT_NS4_5Rank2EENUlvE_clEv"(ptr noundef nonnull align 8 dereferenceable(9) %0)
  ret i1 %call
}

; Function Attrs: mustprogress nounwind uwtable
define internal noundef nonnull align 8 dereferenceable(9) ptr @"_ZNKSt9_Any_data9_M_accessIZN6google8protobuf2io7Printer9ValueImplILb1EE18ToStringOrCallbackIZNKS2_8compiler4rust14SingularScalar9InMsgImplENS9_7ContextINS2_15FieldDescriptorEEEE3$_1vEESt7variantIJNSt7__cxx1112basic_stringIcSt11char_traitsIcESaIcEEESt8functionIFbvEEEEOT_NS6_5Rank2EEUlvE_EERKSQ_v"(ptr noundef nonnull align 8 dereferenceable(16) %this) #5 align 2 {
entry:
  %this.addr = alloca ptr, align 8
  store ptr %this, ptr %this.addr, align 8
  %this1 = load ptr, ptr %this.addr, align 8
  %call = call noundef ptr @_ZNKSt9_Any_data9_M_accessEv(ptr noundef nonnull align 8 dereferenceable(16) %this1) #3
  ret ptr %call
}

; Function Attrs: mustprogress uwtable
define internal noundef zeroext i1 @"_ZSt10__invoke_rIbRZN6google8protobuf2io7Printer9ValueImplILb1EE18ToStringOrCallbackIZNKS1_8compiler4rust14SingularScalar9InMsgImplENS8_7ContextINS1_15FieldDescriptorEEEE3$_1vEESt7variantIJNSt7__cxx1112basic_stringIcSt11char_traitsIcESaIcEEESt8functionIFbvEEEEOT_NS5_5Rank2EEUlvE_JEENSt9enable_ifIX16is_invocable_r_vISP_T0_DpT1_EESP_E4typeEOSV_DpOSW_"(ptr noundef nonnull align 8 dereferenceable(9) %__fn) #4 {
entry:
  %__fn.addr = alloca ptr, align 8
  store ptr %__fn, ptr %__fn.addr, align 8
  %0 = load ptr, ptr %__fn.addr, align 8
  %call = call noundef zeroext i1 @"_ZSt13__invoke_implIbRZN6google8protobuf2io7Printer9ValueImplILb1EE18ToStringOrCallbackIZNKS1_8compiler4rust14SingularScalar9InMsgImplENS8_7ContextINS1_15FieldDescriptorEEEE3$_1vEESt7variantIJNSt7__cxx1112basic_stringIcSt11char_traitsIcESaIcEEESt8functionIFbvEEEEOT_NS5_5Rank2EEUlvE_JEESP_St14__invoke_otherOT0_DpOT1_"(ptr noundef nonnull align 8 dereferenceable(9) %0)
  ret i1 %call
}

; Function Attrs: mustprogress nounwind uwtable
define internal noundef ptr @"_ZNSt14_Function_base13_Base_managerIZN6google8protobuf2io7Printer9ValueImplILb1EE18ToStringOrCallbackIZNKS2_8compiler4rust14SingularScalar9InMsgImplENS9_7ContextINS2_15FieldDescriptorEEEE3$_1vEESt7variantIJNSt7__cxx1112basic_stringIcSt11char_traitsIcESaIcEEESt8functionIFbvEEEEOT_NS6_5Rank2EEUlvE_E14_M_get_pointerERKSt9_Any_data"(ptr noundef nonnull align 8 dereferenceable(16) %__source) #5 align 2 {
entry:
  %__source.addr = alloca ptr, align 8
  %__f = alloca ptr, align 8
  store ptr %__source, ptr %__source.addr, align 8
  %0 = load ptr, ptr %__source.addr, align 8
  %call = call noundef nonnull align 8 dereferenceable(9) ptr @"_ZNKSt9_Any_data9_M_accessIZN6google8protobuf2io7Printer9ValueImplILb1EE18ToStringOrCallbackIZNKS2_8compiler4rust14SingularScalar9InMsgImplENS9_7ContextINS2_15FieldDescriptorEEEE3$_1vEESt7variantIJNSt7__cxx1112basic_stringIcSt11char_traitsIcESaIcEEESt8functionIFbvEEEEOT_NS6_5Rank2EEUlvE_EERKSQ_v"(ptr noundef nonnull align 8 dereferenceable(16) %0) #3
  store ptr %call, ptr %__f, align 8
  %1 = load ptr, ptr %__f, align 8
  ret ptr %1
}

; Function Attrs: mustprogress uwtable
define internal noundef zeroext i1 @"_ZNSt17_Function_handlerIFbvEZN6google8protobuf2io7Printer9ValueImplILb1EE18ToStringOrCallbackIZNKS2_8compiler4rust14SingularScalar9InMsgImplENS9_7ContextINS2_15FieldDescriptorEEEE3$_1vEESt7variantIJNSt7__cxx1112basic_stringIcSt11char_traitsIcESaIcEEESt8functionIS0_EEEOT_NS6_5Rank2EEUlvE_E9_M_invokeERKSt9_Any_data"(ptr noundef nonnull align 8 dereferenceable(16) %__functor) #4 align 2 {
entry:
  %__functor.addr = alloca ptr, align 8
  store ptr %__functor, ptr %__functor.addr, align 8
  %0 = load ptr, ptr %__functor.addr, align 8
  %call = call noundef ptr @"_ZNSt14_Function_base13_Base_managerIZN6google8protobuf2io7Printer9ValueImplILb1EE18ToStringOrCallbackIZNKS2_8compiler4rust14SingularScalar9InMsgImplENS9_7ContextINS2_15FieldDescriptorEEEE3$_1vEESt7variantIJNSt7__cxx1112basic_stringIcSt11char_traitsIcESaIcEEESt8functionIFbvEEEEOT_NS6_5Rank2EEUlvE_E14_M_get_pointerERKSt9_Any_data"(ptr noundef nonnull align 8 dereferenceable(16) %0) #3
  %call1 = call noundef zeroext i1 @"_ZSt10__invoke_rIbRZN6google8protobuf2io7Printer9ValueImplILb1EE18ToStringOrCallbackIZNKS1_8compiler4rust14SingularScalar9InMsgImplENS8_7ContextINS1_15FieldDescriptorEEEE3$_1vEESt7variantIJNSt7__cxx1112basic_stringIcSt11char_traitsIcESaIcEEESt8functionIFbvEEEEOT_NS5_5Rank2EEUlvE_JEENSt9enable_ifIX16is_invocable_r_vISP_T0_DpT1_EESP_E4typeEOSV_DpOSW_"(ptr noundef nonnull align 8 dereferenceable(9) %call)
  ret i1 %call1
}